; Function Attrs: mustprogress uwtable
define noundef i32 @_ZN15colvarbias_meta13replica_shareEv(ptr noundef nonnull align 8 dereferenceable(880) %0) unnamed_addr #4 align 2 {
  %2 = getelementptr inbounds i8, ptr %0, i64 8
  %3 = load i32, ptr %2, align 8
  %4 = icmp eq i32 %3, 1
  br i1 %4, label %5, label %24

5:                                                ; preds = %1
  %6 = tail call noundef ptr @_ZN12colvarmodule4mainEv()
  %7 = load ptr, ptr @_ZN12colvarmodule5proxyE, align 8
  %8 = load ptr, ptr %0, align 8
  %9 = getelementptr inbounds i8, ptr %8, i64 216
  %10 = load ptr, ptr %9, align 8
  %11 = tail call noundef i32 %10(ptr noundef nonnull align 8 dereferenceable(880) %0)
  %12 = getelementptr inbounds i8, ptr %7, i64 840
  %13 = getelementptr inbounds i8, ptr %0, i64 456
  %14 = load ptr, ptr %12, align 8
  %15 = getelementptr inbounds i8, ptr %14, i64 112
  %16 = load ptr, ptr %15, align 8
  %17 = tail call noundef i32 %16(ptr noundef nonnull align 8 dereferenceable(224) %12, ptr noundef nonnull align 8 dereferenceable(32) %13)
  %18 = or i32 %17, %11
  %19 = load ptr, ptr %0, align 8
  %20 = getelementptr inbounds i8, ptr %19, i64 224
  %21 = load ptr, ptr %20, align 8
  %22 = tail call noundef i32 %21(ptr noundef nonnull align 8 dereferenceable(880) %0)
  %23 = or i32 %18, %22
  br label %24

24:                                               ; preds = %5, %1
  %.0 = phi i32 [ %23, %5 ], [ 0, %1 ]
  ret i32 %.0
}